target datalayout = "e-m:e-p270:32:32-p271:32:32-p272:64:64-i64:64-i128:128-f80:128-n8:16:32:64-S128"
target triple = "x86_64-pc-linux-gnu"

%"class.std::vector.3" = type { %"struct.std::_Vector_base.4" }
%"struct.std::_Vector_base.4" = type { %"struct.std::_Vector_base<int, std::allocator<int>>::_Vector_impl" }
%"struct.std::_Vector_base<int, std::allocator<int>>::_Vector_impl" = type { %"struct.std::_Vector_base<int, std::allocator<int>>::_Vector_impl_data" }
%"struct.std::_Vector_base<int, std::allocator<int>>::_Vector_impl_data" = type { ptr, ptr, ptr }
%"struct.Yosys::hashlib::dict<const Yosys::RTLIL::Wire *, Yosys::hashlib::dict<(anonymous namespace)::FlowGraph::Node *, bool>>::entry_t" = type <{ %"struct.std::pair.510", i32, [4 x i8] }>
%"struct.std::pair.510" = type { ptr, %"class.Yosys::hashlib::dict.512" }
%"class.Yosys::hashlib::dict.512" = type <{ %"class.std::vector.3", %"class.std::vector.513", [8 x i8] }>
%"class.std::vector.513" = type { %"struct.std::_Vector_base.514" }
%"struct.std::_Vector_base.514" = type { %"struct.std::_Vector_base<Yosys::hashlib::dict<(anonymous namespace)::FlowGraph::Node *, bool>::entry_t, std::allocator<Yosys::hashlib::dict<(anonymous namespace)::FlowGraph::Node *, bool>::entry_t>>::_Vector_impl" }
%"struct.std::_Vector_base<Yosys::hashlib::dict<(anonymous namespace)::FlowGraph::Node *, bool>::entry_t, std::allocator<Yosys::hashlib::dict<(anonymous namespace)::FlowGraph::Node *, bool>::entry_t>>::_Vector_impl" = type { %"struct.std::_Vector_base<Yosys::hashlib::dict<(anonymous namespace)::FlowGraph::Node *, bool>::entry_t, std::allocator<Yosys::hashlib::dict<(anonymous namespace)::FlowGraph::Node *, bool>::entry_t>>::_Vector_impl_data" }
%"struct.std::_Vector_base<Yosys::hashlib::dict<(anonymous namespace)::FlowGraph::Node *, bool>::entry_t, std::allocator<Yosys::hashlib::dict<(anonymous namespace)::FlowGraph::Node *, bool>::entry_t>>::_Vector_impl_data" = type { ptr, ptr, ptr }

; Function Attrs: mustprogress nounwind uwtable
define linkonce_odr void @_ZNSt15__new_allocatorIiE10deallocateEPim(ptr noundef nonnull align 1 dereferenceable(1) %0, ptr noundef %1, i64 noundef %2) #6 comdat align 2 {
  %4 = alloca ptr, align 8
  %5 = alloca ptr, align 8
  %6 = alloca i64, align 8
  store ptr %0, ptr %4, align 8, !tbaa !241
  store ptr %1, ptr %5, align 8, !tbaa !424
  store i64 %2, ptr %6, align 8, !tbaa !34
  %7 = load ptr, ptr %5, align 8, !tbaa !424
  %8 = load i64, ptr %6, align 8, !tbaa !34
  %9 = mul i64 %8, 4
  call void @_ZdlPvm(ptr noundef %7, i64 noundef %9) #24
  ret void
}

; Function Attrs: mustprogress nounwind uwtable
define internal void @_ZNSt15__new_allocatorIN5Yosys7hashlib4dictIPN12_GLOBAL__N_19FlowGraph4NodeEbNS1_8hash_opsIS6_EEE7entry_tEE10deallocateEPSA_m(ptr noundef nonnull align 1 dereferenceable(1) %0, ptr noundef %1, i64 noundef %2) #6 align 2 {
  %4 = alloca ptr, align 8
  %5 = alloca ptr, align 8
  %6 = alloca i64, align 8
  store ptr %0, ptr %4, align 8, !tbaa !1506
  store ptr %1, ptr %5, align 8, !tbaa !1500
  store i64 %2, ptr %6, align 8, !tbaa !34
  %7 = load ptr, ptr %5, align 8, !tbaa !1500
  %8 = load i64, ptr %6, align 8, !tbaa !34
  %9 = mul i64 %8, 24
  call void @_ZdlPvm(ptr noundef %7, i64 noundef %9) #24
  ret void
}

; Function Attrs: mustprogress uwtable
define linkonce_odr void @_ZNSt16allocator_traitsISaIiEE10deallocateERS0_Pim(ptr noundef nonnull align 1 dereferenceable(1) %0, ptr noundef %1, i64 noundef %2) #4 comdat align 2 {
  %4 = alloca ptr, align 8
  %5 = alloca ptr, align 8
  %6 = alloca i64, align 8
  store ptr %0, ptr %4, align 8, !tbaa !425
  store ptr %1, ptr %5, align 8, !tbaa !424
  store i64 %2, ptr %6, align 8, !tbaa !34
  %7 = load ptr, ptr %4, align 8, !tbaa !425
  %8 = load ptr, ptr %5, align 8, !tbaa !424
  %9 = load i64, ptr %6, align 8, !tbaa !34
  call void @_ZNSt15__new_allocatorIiE10deallocateEPim(ptr noundef nonnull align 1 dereferenceable(1) %7, ptr noundef %8, i64 noundef %9)
  ret void
}

; Function Attrs: mustprogress nounwind uwtable
define linkonce_odr void @_ZNSt12_Destroy_auxILb1EE9__destroyIPiEEvT_S3_(ptr noundef %0, ptr noundef %1) #6 comdat align 2 {
  %3 = alloca ptr, align 8
  %4 = alloca ptr, align 8
  store ptr %0, ptr %3, align 8, !tbaa !424
  store ptr %1, ptr %4, align 8, !tbaa !424
  ret void
}

; Function Attrs: mustprogress uwtable
define internal void @_ZNSt16allocator_traitsISaIN5Yosys7hashlib4dictIPN12_GLOBAL__N_19FlowGraph4NodeEbNS1_8hash_opsIS6_EEE7entry_tEEE10deallocateERSB_PSA_m(ptr noundef nonnull align 1 dereferenceable(1) %0, ptr noundef %1, i64 noundef %2) #4 align 2 {
  %4 = alloca ptr, align 8
  %5 = alloca ptr, align 8
  %6 = alloca i64, align 8
  store ptr %0, ptr %4, align 8, !tbaa !1501
  store ptr %1, ptr %5, align 8, !tbaa !1500
  store i64 %2, ptr %6, align 8, !tbaa !34
  %7 = load ptr, ptr %4, align 8, !tbaa !1501
  %8 = load ptr, ptr %5, align 8, !tbaa !1500
  %9 = load i64, ptr %6, align 8, !tbaa !34
  call void @_ZNSt15__new_allocatorIN5Yosys7hashlib4dictIPN12_GLOBAL__N_19FlowGraph4NodeEbNS1_8hash_opsIS6_EEE7entry_tEE10deallocateEPSA_m(ptr noundef nonnull align 1 dereferenceable(1) %7, ptr noundef %8, i64 noundef %9)
  ret void
}

; Function Attrs: mustprogress nounwind uwtable
define internal void @_ZNSt12_Destroy_auxILb1EE9__destroyIPN5Yosys7hashlib4dictIPN12_GLOBAL__N_19FlowGraph4NodeEbNS3_8hash_opsIS8_EEE7entry_tEEEvT_SE_(ptr noundef %0, ptr noundef %1) #6 align 2 {
  %3 = alloca ptr, align 8
  %4 = alloca ptr, align 8
  store ptr %0, ptr %3, align 8, !tbaa !1500
  store ptr %1, ptr %4, align 8, !tbaa !1500
  ret void
}

; Function Attrs: mustprogress nounwind uwtable
define linkonce_odr void @_ZNSt15__new_allocatorIiED2Ev(ptr noundef nonnull align 1 dereferenceable(1) %0) unnamed_addr #6 comdat align 2 {
  %2 = alloca ptr, align 8
  store ptr %0, ptr %2, align 8, !tbaa !241
  ret void
}

; Function Attrs: mustprogress uwtable
define linkonce_odr void @_ZNSt12_Vector_baseIiSaIiEE13_M_deallocateEPim(ptr noundef nonnull align 8 dereferenceable(24) %0, ptr noundef %1, i64 noundef %2) #4 comdat align 2 {
  %4 = alloca ptr, align 8
  %5 = alloca ptr, align 8
  %6 = alloca i64, align 8
  store ptr %0, ptr %4, align 8, !tbaa !237
  store ptr %1, ptr %5, align 8, !tbaa !424
  store i64 %2, ptr %6, align 8, !tbaa !34
  %7 = load ptr, ptr %4, align 8
  %8 = load ptr, ptr %5, align 8, !tbaa !424
  %9 = icmp ne ptr %8, null
  br i1 %9, label %10, label %14

10:                                               ; preds = %3
  %11 = getelementptr inbounds nuw %"struct.std::_Vector_base.4", ptr %7, i32 0, i32 0
  %12 = load ptr, ptr %5, align 8, !tbaa !424
  %13 = load i64, ptr %6, align 8, !tbaa !34
  call void @_ZNSt16allocator_traitsISaIiEE10deallocateERS0_Pim(ptr noundef nonnull align 1 dereferenceable(1) %11, ptr noundef %12, i64 noundef %13)
  br label %14

14:                                               ; preds = %10, %3
  ret void
}

; Function Attrs: inlinehint mustprogress uwtable
define linkonce_odr void @_ZSt8_DestroyIPiEvT_S1_(ptr noundef %0, ptr noundef %1) #9 comdat {
  %3 = alloca ptr, align 8
  %4 = alloca ptr, align 8
  store ptr %0, ptr %3, align 8, !tbaa !424
  store ptr %1, ptr %4, align 8, !tbaa !424
  %5 = load ptr, ptr %3, align 8, !tbaa !424
  %6 = load ptr, ptr %4, align 8, !tbaa !424
  call void @_ZNSt12_Destroy_auxILb1EE9__destroyIPiEEvT_S3_(ptr noundef %5, ptr noundef %6)
  ret void
}

; Function Attrs: mustprogress nounwind uwtable
define internal void @_ZNSt15__new_allocatorIN5Yosys7hashlib4dictIPN12_GLOBAL__N_19FlowGraph4NodeEbNS1_8hash_opsIS6_EEE7entry_tEED2Ev(ptr noundef nonnull align 1 dereferenceable(1) %0) unnamed_addr #6 align 2 {
  %2 = alloca ptr, align 8
  store ptr %0, ptr %2, align 8, !tbaa !1506
  ret void
}

; Function Attrs: mustprogress uwtable
define internal void @_ZNSt12_Vector_baseIN5Yosys7hashlib4dictIPN12_GLOBAL__N_19FlowGraph4NodeEbNS1_8hash_opsIS6_EEE7entry_tESaISA_EE13_M_deallocateEPSA_m(ptr noundef nonnull align 8 dereferenceable(24) %0, ptr noundef %1, i64 noundef %2) #4 align 2 {
  %4 = alloca ptr, align 8
  %5 = alloca ptr, align 8
  %6 = alloca i64, align 8
  store ptr %0, ptr %4, align 8, !tbaa !1503
  store ptr %1, ptr %5, align 8, !tbaa !1500
  store i64 %2, ptr %6, align 8, !tbaa !34
  %7 = load ptr, ptr %4, align 8
  %8 = load ptr, ptr %5, align 8, !tbaa !1500
  %9 = icmp ne ptr %8, null
  br i1 %9, label %10, label %14

10:                                               ; preds = %3
  %11 = getelementptr inbounds nuw %"struct.std::_Vector_base.514", ptr %7, i32 0, i32 0
  %12 = load ptr, ptr %5, align 8, !tbaa !1500
  %13 = load i64, ptr %6, align 8, !tbaa !34
  call void @_ZNSt16allocator_traitsISaIN5Yosys7hashlib4dictIPN12_GLOBAL__N_19FlowGraph4NodeEbNS1_8hash_opsIS6_EEE7entry_tEEE10deallocateERSB_PSA_m(ptr noundef nonnull align 1 dereferenceable(1) %11, ptr noundef %12, i64 noundef %13)
  br label %14

14:                                               ; preds = %10, %3
  ret void
}

; Function Attrs: inlinehint mustprogress uwtable
define internal void @_ZSt8_DestroyIPN5Yosys7hashlib4dictIPN12_GLOBAL__N_19FlowGraph4NodeEbNS1_8hash_opsIS6_EEE7entry_tEEvT_SC_(ptr noundef %0, ptr noundef %1) #9 {
  %3 = alloca ptr, align 8
  %4 = alloca ptr, align 8
  store ptr %0, ptr %3, align 8, !tbaa !1500
  store ptr %1, ptr %4, align 8, !tbaa !1500
  %5 = load ptr, ptr %3, align 8, !tbaa !1500
  %6 = load ptr, ptr %4, align 8, !tbaa !1500
  call void @_ZNSt12_Destroy_auxILb1EE9__destroyIPN5Yosys7hashlib4dictIPN12_GLOBAL__N_19FlowGraph4NodeEbNS3_8hash_opsIS8_EEE7entry_tEEEvT_SE_(ptr noundef %5, ptr noundef %6)
  ret void
}

; Function Attrs: mustprogress nounwind uwtable
define linkonce_odr void @_ZNSt12_Vector_baseIiSaIiEED2Ev(ptr noundef nonnull align 8 dereferenceable(24) %0) unnamed_addr #6 comdat align 2 personality ptr @__gxx_personality_v0 {
  %2 = alloca ptr, align 8
  store ptr %0, ptr %2, align 8, !tbaa !237
  %3 = load ptr, ptr %2, align 8
  %4 = getelementptr inbounds nuw %"struct.std::_Vector_base.4", ptr %3, i32 0, i32 0
  %5 = getelementptr inbounds nuw %"struct.std::_Vector_base<int, std::allocator<int>>::_Vector_impl_data", ptr %4, i32 0, i32 0
  %6 = load ptr, ptr %5, align 8, !tbaa !401
  %7 = getelementptr inbounds nuw %"struct.std::_Vector_base.4", ptr %3, i32 0, i32 0
  %8 = getelementptr inbounds nuw %"struct.std::_Vector_base<int, std::allocator<int>>::_Vector_impl_data", ptr %7, i32 0, i32 2
  %9 = load ptr, ptr %8, align 8, !tbaa !427
  %10 = getelementptr inbounds nuw %"struct.std::_Vector_base.4", ptr %3, i32 0, i32 0
  %11 = getelementptr inbounds nuw %"struct.std::_Vector_base<int, std::allocator<int>>::_Vector_impl_data", ptr %10, i32 0, i32 0
  %12 = load ptr, ptr %11, align 8, !tbaa !401
  %13 = ptrtoint ptr %9 to i64
  %14 = ptrtoint ptr %12 to i64
  %15 = sub i64 %13, %14
  %16 = sdiv exact i64 %15, 4
  invoke void @_ZNSt12_Vector_baseIiSaIiEE13_M_deallocateEPim(ptr noundef nonnull align 8 dereferenceable(24) %3, ptr noundef %6, i64 noundef %16)
          to label %17 unwind label %19

17:                                               ; preds = %1
  %18 = getelementptr inbounds nuw %"struct.std::_Vector_base.4", ptr %3, i32 0, i32 0
  call void @_ZNSt15__new_allocatorIiED2Ev(ptr noundef nonnull align 8 dereferenceable(24) %18) #3
  ret void

19:                                               ; preds = %1
  %20 = landingpad { ptr, i32 }
          catch ptr null
  %21 = extractvalue { ptr, i32 } %20, 0
  call void @__clang_call_terminate(ptr %21) #23
  unreachable
}

; Function Attrs: inlinehint mustprogress uwtable
define linkonce_odr void @_ZSt8_DestroyIPiiEvT_S1_RSaIT0_E(ptr noundef %0, ptr noundef %1, ptr noundef nonnull align 1 dereferenceable(1) %2) #9 comdat {
  %4 = alloca ptr, align 8
  %5 = alloca ptr, align 8
  %6 = alloca ptr, align 8
  store ptr %0, ptr %4, align 8, !tbaa !424
  store ptr %1, ptr %5, align 8, !tbaa !424
  store ptr %2, ptr %6, align 8, !tbaa !425
  %7 = load ptr, ptr %4, align 8, !tbaa !424
  %8 = load ptr, ptr %5, align 8, !tbaa !424
  call void @_ZSt8_DestroyIPiEvT_S1_(ptr noundef %7, ptr noundef %8)
  ret void
}

; Function Attrs: mustprogress nounwind uwtable
define linkonce_odr noundef nonnull align 1 dereferenceable(1) ptr @_ZNSt12_Vector_baseIiSaIiEE19_M_get_Tp_allocatorEv(ptr noundef nonnull align 8 dereferenceable(24) %0) #6 comdat align 2 {
  %2 = alloca ptr, align 8
  store ptr %0, ptr %2, align 8, !tbaa !237
  %3 = load ptr, ptr %2, align 8
  %4 = getelementptr inbounds nuw %"struct.std::_Vector_base.4", ptr %3, i32 0, i32 0
  ret ptr %4
}

; Function Attrs: noinline noreturn nounwind uwtable
define linkonce_odr hidden void @__clang_call_terminate(ptr noundef %0) #11 comdat {
  %2 = call ptr @__cxa_begin_catch(ptr %0) #3
  call void @_ZSt9terminatev() #23
  unreachable
}

; Function Attrs: mustprogress nounwind uwtable
define internal void @_ZNSt12_Vector_baseIN5Yosys7hashlib4dictIPN12_GLOBAL__N_19FlowGraph4NodeEbNS1_8hash_opsIS6_EEE7entry_tESaISA_EED2Ev(ptr noundef nonnull align 8 dereferenceable(24) %0) unnamed_addr #6 align 2 personality ptr @__gxx_personality_v0 {
  %2 = alloca ptr, align 8
  store ptr %0, ptr %2, align 8, !tbaa !1503
  %3 = load ptr, ptr %2, align 8
  %4 = getelementptr inbounds nuw %"struct.std::_Vector_base.514", ptr %3, i32 0, i32 0
  %5 = getelementptr inbounds nuw %"struct.std::_Vector_base<Yosys::hashlib::dict<(anonymous namespace)::FlowGraph::Node *, bool>::entry_t, std::allocator<Yosys::hashlib::dict<(anonymous namespace)::FlowGraph::Node *, bool>::entry_t>>::_Vector_impl_data", ptr %4, i32 0, i32 0
  %6 = load ptr, ptr %5, align 8, !tbaa !1496
  %7 = getelementptr inbounds nuw %"struct.std::_Vector_base.514", ptr %3, i32 0, i32 0
  %8 = getelementptr inbounds nuw %"struct.std::_Vector_base<Yosys::hashlib::dict<(anonymous namespace)::FlowGraph::Node *, bool>::entry_t, std::allocator<Yosys::hashlib::dict<(anonymous namespace)::FlowGraph::Node *, bool>::entry_t>>::_Vector_impl_data", ptr %7, i32 0, i32 2
  %9 = load ptr, ptr %8, align 8, !tbaa !1505
  %10 = getelementptr inbounds nuw %"struct.std::_Vector_base.514", ptr %3, i32 0, i32 0
  %11 = getelementptr inbounds nuw %"struct.std::_Vector_base<Yosys::hashlib::dict<(anonymous namespace)::FlowGraph::Node *, bool>::entry_t, std::allocator<Yosys::hashlib::dict<(anonymous namespace)::FlowGraph::Node *, bool>::entry_t>>::_Vector_impl_data", ptr %10, i32 0, i32 0
  %12 = load ptr, ptr %11, align 8, !tbaa !1496
  %13 = ptrtoint ptr %9 to i64
  %14 = ptrtoint ptr %12 to i64
  %15 = sub i64 %13, %14
  %16 = sdiv exact i64 %15, 24
  invoke void @_ZNSt12_Vector_baseIN5Yosys7hashlib4dictIPN12_GLOBAL__N_19FlowGraph4NodeEbNS1_8hash_opsIS6_EEE7entry_tESaISA_EE13_M_deallocateEPSA_m(ptr noundef nonnull align 8 dereferenceable(24) %3, ptr noundef %6, i64 noundef %16)
          to label %17 unwind label %19

17:                                               ; preds = %1
  %18 = getelementptr inbounds nuw %"struct.std::_Vector_base.514", ptr %3, i32 0, i32 0
  call void @_ZNSt15__new_allocatorIN5Yosys7hashlib4dictIPN12_GLOBAL__N_19FlowGraph4NodeEbNS1_8hash_opsIS6_EEE7entry_tEED2Ev(ptr noundef nonnull align 8 dereferenceable(24) %18) #3
  ret void

19:                                               ; preds = %1
  %20 = landingpad { ptr, i32 }
          catch ptr null
  %21 = extractvalue { ptr, i32 } %20, 0
  call void @__clang_call_terminate(ptr %21) #23
  unreachable
}

; Function Attrs: inlinehint mustprogress uwtable
define internal void @_ZSt8_DestroyIPN5Yosys7hashlib4dictIPN12_GLOBAL__N_19FlowGraph4NodeEbNS1_8hash_opsIS6_EEE7entry_tESA_EvT_SC_RSaIT0_E(ptr noundef %0, ptr noundef %1, ptr noundef nonnull align 1 dereferenceable(1) %2) #9 {
  %4 = alloca ptr, align 8
  %5 = alloca ptr, align 8
  %6 = alloca ptr, align 8
  store ptr %0, ptr %4, align 8, !tbaa !1500
  store ptr %1, ptr %5, align 8, !tbaa !1500
  store ptr %2, ptr %6, align 8, !tbaa !1501
  %7 = load ptr, ptr %4, align 8, !tbaa !1500
  %8 = load ptr, ptr %5, align 8, !tbaa !1500
  call void @_ZSt8_DestroyIPN5Yosys7hashlib4dictIPN12_GLOBAL__N_19FlowGraph4NodeEbNS1_8hash_opsIS6_EEE7entry_tEEvT_SC_(ptr noundef %7, ptr noundef %8)
  ret void
}

; Function Attrs: mustprogress nounwind uwtable
define internal noundef nonnull align 1 dereferenceable(1) ptr @_ZNSt12_Vector_baseIN5Yosys7hashlib4dictIPN12_GLOBAL__N_19FlowGraph4NodeEbNS1_8hash_opsIS6_EEE7entry_tESaISA_EE19_M_get_Tp_allocatorEv(ptr noundef nonnull align 8 dereferenceable(24) %0) #6 align 2 {
  %2 = alloca ptr, align 8
  store ptr %0, ptr %2, align 8, !tbaa !1503
  %3 = load ptr, ptr %2, align 8
  %4 = getelementptr inbounds nuw %"struct.std::_Vector_base.514", ptr %3, i32 0, i32 0
  ret ptr %4
}

; Function Attrs: mustprogress nounwind uwtable
define linkonce_odr void @_ZNSt6vectorIiSaIiEED2Ev(ptr noundef nonnull align 8 dereferenceable(24) %0) unnamed_addr #6 comdat align 2 personality ptr @__gxx_personality_v0 {
  %2 = alloca ptr, align 8
  store ptr %0, ptr %2, align 8, !tbaa !233
  %3 = load ptr, ptr %2, align 8
  %4 = getelementptr inbounds nuw %"struct.std::_Vector_base.4", ptr %3, i32 0, i32 0
  %5 = getelementptr inbounds nuw %"struct.std::_Vector_base<int, std::allocator<int>>::_Vector_impl_data", ptr %4, i32 0, i32 0
  %6 = load ptr, ptr %5, align 8, !tbaa !401
  %7 = getelementptr inbounds nuw %"struct.std::_Vector_base.4", ptr %3, i32 0, i32 0
  %8 = getelementptr inbounds nuw %"struct.std::_Vector_base<int, std::allocator<int>>::_Vector_impl_data", ptr %7, i32 0, i32 1
  %9 = load ptr, ptr %8, align 8, !tbaa !402
  %10 = call noundef nonnull align 1 dereferenceable(1) ptr @_ZNSt12_Vector_baseIiSaIiEE19_M_get_Tp_allocatorEv(ptr noundef nonnull align 8 dereferenceable(24) %3) #3
  invoke void @_ZSt8_DestroyIPiiEvT_S1_RSaIT0_E(ptr noundef %6, ptr noundef %9, ptr noundef nonnull align 1 dereferenceable(1) %10)
          to label %11 unwind label %12

11:                                               ; preds = %1
  call void @_ZNSt12_Vector_baseIiSaIiEED2Ev(ptr noundef nonnull align 8 dereferenceable(24) %3) #3
  ret void

12:                                               ; preds = %1
  %13 = landingpad { ptr, i32 }
          catch ptr null
  %14 = extractvalue { ptr, i32 } %13, 0
  call void @__clang_call_terminate(ptr %14) #23
  unreachable
}

; Function Attrs: mustprogress nounwind uwtable
define internal void @_ZNSt6vectorIN5Yosys7hashlib4dictIPN12_GLOBAL__N_19FlowGraph4NodeEbNS1_8hash_opsIS6_EEE7entry_tESaISA_EED2Ev(ptr noundef nonnull align 8 dereferenceable(24) %0) unnamed_addr #6 align 2 personality ptr @__gxx_personality_v0 {
  %2 = alloca ptr, align 8
  store ptr %0, ptr %2, align 8, !tbaa !1494
  %3 = load ptr, ptr %2, align 8
  %4 = getelementptr inbounds nuw %"struct.std::_Vector_base.514", ptr %3, i32 0, i32 0
  %5 = getelementptr inbounds nuw %"struct.std::_Vector_base<Yosys::hashlib::dict<(anonymous namespace)::FlowGraph::Node *, bool>::entry_t, std::allocator<Yosys::hashlib::dict<(anonymous namespace)::FlowGraph::Node *, bool>::entry_t>>::_Vector_impl_data", ptr %4, i32 0, i32 0
  %6 = load ptr, ptr %5, align 8, !tbaa !1496
  %7 = getelementptr inbounds nuw %"struct.std::_Vector_base.514", ptr %3, i32 0, i32 0
  %8 = getelementptr inbounds nuw %"struct.std::_Vector_base<Yosys::hashlib::dict<(anonymous namespace)::FlowGraph::Node *, bool>::entry_t, std::allocator<Yosys::hashlib::dict<(anonymous namespace)::FlowGraph::Node *, bool>::entry_t>>::_Vector_impl_data", ptr %7, i32 0, i32 1
  %9 = load ptr, ptr %8, align 8, !tbaa !1499
  %10 = call noundef nonnull align 1 dereferenceable(1) ptr @_ZNSt12_Vector_baseIN5Yosys7hashlib4dictIPN12_GLOBAL__N_19FlowGraph4NodeEbNS1_8hash_opsIS6_EEE7entry_tESaISA_EE19_M_get_Tp_allocatorEv(ptr noundef nonnull align 8 dereferenceable(24) %3) #3
  invoke void @_ZSt8_DestroyIPN5Yosys7hashlib4dictIPN12_GLOBAL__N_19FlowGraph4NodeEbNS1_8hash_opsIS6_EEE7entry_tESA_EvT_SC_RSaIT0_E(ptr noundef %6, ptr noundef %9, ptr noundef nonnull align 1 dereferenceable(1) %10)
          to label %11 unwind label %12

11:                                               ; preds = %1
  call void @_ZNSt12_Vector_baseIN5Yosys7hashlib4dictIPN12_GLOBAL__N_19FlowGraph4NodeEbNS1_8hash_opsIS6_EEE7entry_tESaISA_EED2Ev(ptr noundef nonnull align 8 dereferenceable(24) %3) #3
  ret void

12:                                               ; preds = %1
  %13 = landingpad { ptr, i32 }
          catch ptr null
  %14 = extractvalue { ptr, i32 } %13, 0
  call void @__clang_call_terminate(ptr %14) #23
  unreachable
}

; Function Attrs: inlinehint mustprogress nounwind uwtable
define internal void @_ZN5Yosys7hashlib4dictIPN12_GLOBAL__N_19FlowGraph4NodeEbNS0_8hash_opsIS5_EEED2Ev(ptr noundef nonnull align 8 dereferenceable(49) %0) unnamed_addr #7 align 2 {
  %2 = alloca ptr, align 8
  store ptr %0, ptr %2, align 8, !tbaa !1492
  %3 = load ptr, ptr %2, align 8
  %4 = getelementptr inbounds nuw %"class.Yosys::hashlib::dict.512", ptr %3, i32 0, i32 1
  call void @_ZNSt6vectorIN5Yosys7hashlib4dictIPN12_GLOBAL__N_19FlowGraph4NodeEbNS1_8hash_opsIS6_EEE7entry_tESaISA_EED2Ev(ptr noundef nonnull align 8 dereferenceable(24) %4) #3
  %5 = getelementptr inbounds nuw %"class.Yosys::hashlib::dict.512", ptr %3, i32 0, i32 0
  call void @_ZNSt6vectorIiSaIiEED2Ev(ptr noundef nonnull align 8 dereferenceable(24) %5) #3
  ret void
}

; Function Attrs: inlinehint mustprogress nounwind uwtable
define internal void @_ZNSt4pairIPKN5Yosys5RTLIL4WireENS0_7hashlib4dictIPN12_GLOBAL__N_19FlowGraph4NodeEbNS5_8hash_opsISA_EEEEED2Ev(ptr noundef nonnull align 8 dereferenceable(64) %0) unnamed_addr #7 align 2 {
  %2 = alloca ptr, align 8
  store ptr %0, ptr %2, align 8, !tbaa !1490
  %3 = load ptr, ptr %2, align 8
  %4 = getelementptr inbounds nuw %"struct.std::pair.510", ptr %3, i32 0, i32 1
  call void @_ZN5Yosys7hashlib4dictIPN12_GLOBAL__N_19FlowGraph4NodeEbNS0_8hash_opsIS5_EEED2Ev(ptr noundef nonnull align 8 dereferenceable(49) %4) #3
  ret void
}

; Function Attrs: inlinehint mustprogress nounwind uwtable
define internal void @_ZN5Yosys7hashlib4dictIPKNS_5RTLIL4WireENS1_IPN12_GLOBAL__N_19FlowGraph4NodeEbNS0_8hash_opsIS9_EEEENSA_IS5_EEE7entry_tD2Ev(ptr noundef nonnull align 8 dereferenceable(68) %0) unnamed_addr #7 align 2 {
  %2 = alloca ptr, align 8
  store ptr %0, ptr %2, align 8, !tbaa !1488
  %3 = load ptr, ptr %2, align 8
  %4 = getelementptr inbounds nuw %"struct.Yosys::hashlib::dict<const Yosys::RTLIL::Wire *, Yosys::hashlib::dict<(anonymous namespace)::FlowGraph::Node *, bool>>::entry_t", ptr %3, i32 0, i32 0
  call void @_ZNSt4pairIPKN5Yosys5RTLIL4WireENS0_7hashlib4dictIPN12_GLOBAL__N_19FlowGraph4NodeEbNS5_8hash_opsISA_EEEEED2Ev(ptr noundef nonnull align 8 dereferenceable(64) %4) #3
  ret void
}

; Function Attrs: mustprogress nounwind uwtable
define internal void @_ZNSt15__new_allocatorIN5Yosys7hashlib4dictIPKNS0_5RTLIL4WireENS2_IPN12_GLOBAL__N_19FlowGraph4NodeEbNS1_8hash_opsISA_EEEENSB_IS6_EEE7entry_tEE7destroyISG_EEvPT_(ptr noundef nonnull align 1 dereferenceable(1) %0, ptr noundef %1) #6 align 2 {
  %3 = alloca ptr, align 8
  %4 = alloca ptr, align 8
  store ptr %0, ptr %3, align 8, !tbaa !1486
  store ptr %1, ptr %4, align 8, !tbaa !1488
  %5 = load ptr, ptr %4, align 8, !tbaa !1488
  call void @_ZN5Yosys7hashlib4dictIPKNS_5RTLIL4WireENS1_IPN12_GLOBAL__N_19FlowGraph4NodeEbNS0_8hash_opsIS9_EEEENSA_IS5_EEE7entry_tD2Ev(ptr noundef nonnull align 8 dereferenceable(68) %5) #3
  ret void
}

; Function Attrs: mustprogress nounwind uwtable
define internal void @_ZNSt16allocator_traitsISaIN5Yosys7hashlib4dictIPKNS0_5RTLIL4WireENS2_IPN12_GLOBAL__N_19FlowGraph4NodeEbNS1_8hash_opsISA_EEEENSB_IS6_EEE7entry_tEEE7destroyISG_EEvRSH_PT_(ptr noundef nonnull align 1 dereferenceable(1) %0, ptr noundef %1) #6 align 2 {
  %3 = alloca ptr, align 8
  %4 = alloca ptr, align 8
  store ptr %0, ptr %3, align 8, !tbaa !1477
  store ptr %1, ptr %4, align 8, !tbaa !1488
  %5 = load ptr, ptr %3, align 8, !tbaa !1477
  %6 = load ptr, ptr %4, align 8, !tbaa !1488
  call void @_ZNSt15__new_allocatorIN5Yosys7hashlib4dictIPKNS0_5RTLIL4WireENS2_IPN12_GLOBAL__N_19FlowGraph4NodeEbNS1_8hash_opsISA_EEEENSB_IS6_EEE7entry_tEE7destroyISG_EEvPT_(ptr noundef nonnull align 1 dereferenceable(1) %5, ptr noundef %6) #3
  ret void
}